; Function Attrs: mustprogress nofree norecurse nosync nounwind willreturn memory(none) uwtable
define hidden noundef zeroext i1 @_ZN4cvc58internal4expr7isAssocENS0_4kind6Kind_tE(i32 noundef %0) local_unnamed_addr #7 {
  switch i32 %0, label %2 [
    i32 315, label %_ZN4cvc58internal4expr15isAssocCommIdemENS0_4kind6Kind_tE.exit
    i32 347, label %_ZN4cvc58internal4expr15isAssocCommIdemENS0_4kind6Kind_tE.exit
    i32 24, label %_ZN4cvc58internal4expr15isAssocCommIdemENS0_4kind6Kind_tE.exit
    i32 22, label %_ZN4cvc58internal4expr15isAssocCommIdemENS0_4kind6Kind_tE.exit
    i32 249, label %_ZN4cvc58internal4expr15isAssocCommIdemENS0_4kind6Kind_tE.exit
    i32 348, label %_ZN4cvc58internal4expr15isAssocCommIdemENS0_4kind6Kind_tE.exit
    i32 349, label %_ZN4cvc58internal4expr15isAssocCommIdemENS0_4kind6Kind_tE.exit
    i32 93, label %_ZN4cvc58internal4expr15isAssocCommIdemENS0_4kind6Kind_tE.exit
    i32 95, label %_ZN4cvc58internal4expr15isAssocCommIdemENS0_4kind6Kind_tE.exit
    i32 155, label %_ZN4cvc58internal4expr15isAssocCommIdemENS0_4kind6Kind_tE.exit
    i32 153, label %_ZN4cvc58internal4expr15isAssocCommIdemENS0_4kind6Kind_tE.exit
  ]

2:                                                ; preds = %1
  br label %_ZN4cvc58internal4expr15isAssocCommIdemENS0_4kind6Kind_tE.exit

_ZN4cvc58internal4expr15isAssocCommIdemENS0_4kind6Kind_tE.exit: ; preds = %1, %1, %1, %1, %1, %1, %1, %1, %1, %1, %1, %2
  %.0 = phi i1 [ true, %1 ], [ true, %1 ], [ false, %2 ], [ true, %1 ], [ true, %1 ], [ true, %1 ], [ true, %1 ], [ true, %1 ], [ true, %1 ], [ true, %1 ], [ true, %1 ], [ true, %1 ]
  ret i1 %.0
}